; Function Attrs: mustprogress uwtable
define hidden void @_ZN7datalog21check_relation_plugin14verify_projectERKNS_13relation_baseES3_RK7svectorIjjE(ptr noundef nonnull readonly align 8 captures(none) dereferenceable(56) %0, ptr noundef nonnull align 8 dereferenceable(28) %1, ptr noundef nonnull align 8 dereferenceable(28) %2, ptr noundef nonnull readonly align 8 captures(none) dereferenceable(8) %3) local_unnamed_addr #3 align 2 personality ptr @__gxx_personality_v0 {
  %5 = alloca %class.obj_ref, align 8
  %6 = alloca %class.obj_ref, align 8
  call void @llvm.lifetime.start.p0(i64 16, ptr nonnull %5) #24
  %7 = getelementptr inbounds nuw i8, ptr %0, i64 40
  %8 = load ptr, ptr %7, align 8, !tbaa !43
  store ptr null, ptr %5, align 8, !tbaa !35
  %9 = getelementptr inbounds nuw i8, ptr %5, i64 8
  store ptr %8, ptr %9, align 8, !tbaa !27
  call void @llvm.lifetime.start.p0(i64 16, ptr nonnull %6) #24
  store ptr null, ptr %6, align 8, !tbaa !35
  %10 = getelementptr inbounds nuw i8, ptr %6, i64 8
  store ptr %8, ptr %10, align 8, !tbaa !27
  %11 = load ptr, ptr %1, align 8, !tbaa !3
  %12 = getelementptr inbounds nuw i8, ptr %11, i64 144
  %13 = load ptr, ptr %12, align 8
  invoke void %13(ptr noundef nonnull align 8 dereferenceable(28) %1, ptr noundef nonnull align 8 dereferenceable(16) %5)
          to label %14 unwind label %44

14:                                               ; preds = %4
  %15 = load ptr, ptr %2, align 8, !tbaa !3
  %16 = getelementptr inbounds nuw i8, ptr %15, i64 144
  %17 = load ptr, ptr %16, align 8
  invoke void %17(ptr noundef nonnull align 8 dereferenceable(28) %2, ptr noundef nonnull align 8 dereferenceable(16) %6)
          to label %18 unwind label %44

18:                                               ; preds = %14
  %19 = load ptr, ptr %5, align 8, !tbaa !35
  %20 = load ptr, ptr %6, align 8, !tbaa !35
  invoke void @_ZN7datalog21check_relation_plugin14verify_projectERKNS_13relation_baseEP4exprS3_S5_RK7svectorIjjE(ptr noundef nonnull align 8 dereferenceable(56) %0, ptr noundef nonnull align 8 dereferenceable(28) %1, ptr noundef %19, ptr noundef nonnull align 8 dereferenceable(28) %2, ptr noundef %20, ptr noundef nonnull align 8 dereferenceable(8) %3)
          to label %21 unwind label %44

21:                                               ; preds = %18
  %22 = load ptr, ptr %6, align 8, !tbaa !35
  %.not.i.i = icmp eq ptr %22, null
  br i1 %.not.i.i, label %_ZN7obj_refI4expr11ast_managerED2Ev.exit, label %23

23:                                               ; preds = %21
  %24 = load ptr, ptr %10, align 8, !tbaa !36
  %25 = getelementptr inbounds nuw i8, ptr %22, i64 8
  %26 = load i32, ptr %25, align 4, !tbaa !37
  %27 = add i32 %26, -1
  store i32 %27, ptr %25, align 4, !tbaa !37
  %28 = icmp eq i32 %27, 0
  br i1 %28, label %29, label %_ZN7obj_refI4expr11ast_managerED2Ev.exit

29:                                               ; preds = %23
  invoke void @_ZN11ast_manager11delete_nodeEP3ast(ptr noundef nonnull align 8 dereferenceable(976) %24, ptr noundef nonnull %22)
          to label %_ZN7obj_refI4expr11ast_managerED2Ev.exit unwind label %30

30:                                               ; preds = %29
  %31 = landingpad { ptr, i32 }
          catch ptr null
  %32 = extractvalue { ptr, i32 } %31, 0
  call void @__clang_call_terminate(ptr %32) #25
  unreachable

_ZN7obj_refI4expr11ast_managerED2Ev.exit:         ; preds = %21, %23, %29
  call void @llvm.lifetime.end.p0(i64 16, ptr nonnull %6) #24
  %33 = load ptr, ptr %5, align 8, !tbaa !35
  %.not.i.i7 = icmp eq ptr %33, null
  br i1 %.not.i.i7, label %_ZN7obj_refI4expr11ast_managerED2Ev.exit8, label %34

34:                                               ; preds = %_ZN7obj_refI4expr11ast_managerED2Ev.exit
  %35 = load ptr, ptr %9, align 8, !tbaa !36
  %36 = getelementptr inbounds nuw i8, ptr %33, i64 8
  %37 = load i32, ptr %36, align 4, !tbaa !37
  %38 = add i32 %37, -1
  store i32 %38, ptr %36, align 4, !tbaa !37
  %39 = icmp eq i32 %38, 0
  br i1 %39, label %40, label %_ZN7obj_refI4expr11ast_managerED2Ev.exit8

40:                                               ; preds = %34
  invoke void @_ZN11ast_manager11delete_nodeEP3ast(ptr noundef nonnull align 8 dereferenceable(976) %35, ptr noundef nonnull %33)
          to label %_ZN7obj_refI4expr11ast_managerED2Ev.exit8 unwind label %41

41:                                               ; preds = %40
  %42 = landingpad { ptr, i32 }
          catch ptr null
  %43 = extractvalue { ptr, i32 } %42, 0
  call void @__clang_call_terminate(ptr %43) #25
  unreachable

_ZN7obj_refI4expr11ast_managerED2Ev.exit8:        ; preds = %_ZN7obj_refI4expr11ast_managerED2Ev.exit, %34, %40
  call void @llvm.lifetime.end.p0(i64 16, ptr nonnull %5) #24
  ret void

44:                                               ; preds = %18, %14, %4
  %45 = landingpad { ptr, i32 }
          cleanup
  call void @_ZN7obj_refI4expr11ast_managerED2Ev(ptr noundef nonnull align 8 dereferenceable(16) %6) #24
  call void @llvm.lifetime.end.p0(i64 16, ptr nonnull %6) #24
  call void @_ZN7obj_refI4expr11ast_managerED2Ev(ptr noundef nonnull align 8 dereferenceable(16) %5) #24
  call void @llvm.lifetime.end.p0(i64 16, ptr nonnull %5) #24
  resume { ptr, i32 } %45
}